; Function Attrs: mustprogress uwtable
define hidden noundef nonnull align 8 dereferenceable(8) ptr @_ZN3euf9ac_plugin17backward_iteratorEj(ptr noundef nonnull align 8 dereferenceable(432) %0, i32 noundef %1) local_unnamed_addr #3 align 2 {
  %3 = getelementptr inbounds nuw i8, ptr %0, i64 32
  %4 = load ptr, ptr %3, align 8, !tbaa !111
  %5 = zext i32 %1 to i64
  %6 = getelementptr inbounds nuw %"struct.euf::ac_plugin::eq", ptr %4, i64 %5
  %7 = getelementptr inbounds nuw i8, ptr %6, i64 4
  %8 = load i32, ptr %7, align 4, !tbaa !222
  %9 = getelementptr inbounds nuw i8, ptr %0, i64 56
  %10 = load ptr, ptr %9, align 8, !tbaa !108
  %11 = zext i32 %8 to i64
  %12 = getelementptr inbounds nuw %"struct.euf::ac_plugin::monomial_t", ptr %10, i64 %11
  %13 = getelementptr inbounds nuw i8, ptr %0, i64 368
  tail call void @_ZNK3euf9ac_plugin15init_ref_countsERK10ptr_vectorINS0_4nodeEERNS0_10ref_countsE(ptr nonnull readnone align 8 poison, ptr noundef nonnull readonly align 8 dereferenceable(24) %12, ptr noundef nonnull align 8 dereferenceable(16) %13)
  %14 = load i32, ptr %6, align 8, !tbaa !221
  %15 = load ptr, ptr %9, align 8, !tbaa !108
  %16 = zext i32 %14 to i64
  %17 = getelementptr inbounds nuw %"struct.euf::ac_plugin::monomial_t", ptr %15, i64 %16
  %18 = getelementptr inbounds nuw i8, ptr %0, i64 336
  tail call void @_ZNK3euf9ac_plugin15init_ref_countsERK10ptr_vectorINS0_4nodeEERNS0_10ref_countsE(ptr nonnull readnone align 8 poison, ptr noundef nonnull readonly align 8 dereferenceable(24) %17, ptr noundef nonnull align 8 dereferenceable(16) %18)
  %19 = getelementptr inbounds nuw i8, ptr %0, i64 304
  %20 = load ptr, ptr %19, align 8, !tbaa !99
  %.not.i = icmp eq ptr %20, null
  br i1 %.not.i, label %_ZN6vectorIPN3euf9ac_plugin4nodeELb0EjE5resetEv.exit, label %21

21:                                               ; preds = %2
  %22 = getelementptr inbounds i8, ptr %20, i64 -4
  store i32 0, ptr %22, align 4, !tbaa !109
  br label %_ZN6vectorIPN3euf9ac_plugin4nodeELb0EjE5resetEv.exit

_ZN6vectorIPN3euf9ac_plugin4nodeELb0EjE5resetEv.exit: ; preds = %2, %21
  %23 = load i32, ptr %7, align 4, !tbaa !222
  %24 = load ptr, ptr %9, align 8, !tbaa !108
  %25 = zext i32 %23 to i64
  %26 = getelementptr inbounds nuw %"struct.euf::ac_plugin::monomial_t", ptr %24, i64 %25
  br label %27

27:                                               ; preds = %_ZN6vectorIPN3euf9ac_plugin4nodeELb0EjE9push_backERKS3_.exit.i, %_ZN6vectorIPN3euf9ac_plugin4nodeELb0EjE5resetEv.exit
  %28 = phi ptr [ %46, %_ZN6vectorIPN3euf9ac_plugin4nodeELb0EjE9push_backERKS3_.exit.i ], [ %20, %_ZN6vectorIPN3euf9ac_plugin4nodeELb0EjE5resetEv.exit ]
  %indvars.iv.i = phi i64 [ %indvars.iv.next.i, %_ZN6vectorIPN3euf9ac_plugin4nodeELb0EjE9push_backERKS3_.exit.i ], [ 0, %_ZN6vectorIPN3euf9ac_plugin4nodeELb0EjE5resetEv.exit ]
  %29 = load ptr, ptr %26, align 8, !tbaa !99
  %30 = icmp eq ptr %29, null
  br i1 %30, label %_ZNK6vectorIPN3euf9ac_plugin4nodeELb0EjE4sizeEv.exit.i, label %31

31:                                               ; preds = %27
  %32 = getelementptr inbounds i8, ptr %29, i64 -4
  %33 = load i32, ptr %32, align 4, !tbaa !109
  %34 = zext i32 %33 to i64
  br label %_ZNK6vectorIPN3euf9ac_plugin4nodeELb0EjE4sizeEv.exit.i

_ZNK6vectorIPN3euf9ac_plugin4nodeELb0EjE4sizeEv.exit.i: ; preds = %31, %27
  %.0.i.i = phi i64 [ %34, %31 ], [ 0, %27 ]
  %35 = icmp samesign ult i64 %indvars.iv.i, %.0.i.i
  br i1 %35, label %36, label %_ZN6vectorIPN3euf9ac_plugin4nodeELb0EjE6appendERKS4_.exit

36:                                               ; preds = %_ZNK6vectorIPN3euf9ac_plugin4nodeELb0EjE4sizeEv.exit.i
  %37 = getelementptr inbounds nuw ptr, ptr %29, i64 %indvars.iv.i
  %38 = icmp eq ptr %28, null
  br i1 %38, label %45, label %39

39:                                               ; preds = %36
  %40 = getelementptr inbounds i8, ptr %28, i64 -4
  %41 = load i32, ptr %40, align 4, !tbaa !109
  %42 = getelementptr inbounds i8, ptr %28, i64 -8
  %43 = load i32, ptr %42, align 4, !tbaa !109
  %44 = icmp eq i32 %41, %43
  br i1 %44, label %45, label %_ZN6vectorIPN3euf9ac_plugin4nodeELb0EjE9push_backERKS3_.exit.i

45:                                               ; preds = %39, %36
  tail call void @_ZN6vectorIPN3euf9ac_plugin4nodeELb0EjE13expand_vectorEv(ptr noundef nonnull align 8 dereferenceable(8) %19)
  %.pre.i.i = load ptr, ptr %19, align 8, !tbaa !99
  %.phi.trans.insert.i.i = getelementptr inbounds i8, ptr %.pre.i.i, i64 -4
  %.pre2.i.i = load i32, ptr %.phi.trans.insert.i.i, align 4, !tbaa !109
  br label %_ZN6vectorIPN3euf9ac_plugin4nodeELb0EjE9push_backERKS3_.exit.i

_ZN6vectorIPN3euf9ac_plugin4nodeELb0EjE9push_backERKS3_.exit.i: ; preds = %45, %39
  %46 = phi ptr [ %.pre.i.i, %45 ], [ %28, %39 ]
  %47 = phi i32 [ %.pre2.i.i, %45 ], [ %41, %39 ]
  %48 = getelementptr inbounds i8, ptr %46, i64 -4
  %49 = zext i32 %47 to i64
  %50 = getelementptr inbounds nuw ptr, ptr %46, i64 %49
  %51 = load ptr, ptr %37, align 8, !tbaa !149
  store ptr %51, ptr %50, align 8, !tbaa !149
  %52 = add i32 %47, 1
  store i32 %52, ptr %48, align 4, !tbaa !109
  %indvars.iv.next.i = add nuw nsw i64 %indvars.iv.i, 1
  br label %27, !llvm.loop !238

_ZN6vectorIPN3euf9ac_plugin4nodeELb0EjE6appendERKS4_.exit: ; preds = %_ZNK6vectorIPN3euf9ac_plugin4nodeELb0EjE4sizeEv.exit.i
  %53 = load i32, ptr %7, align 4, !tbaa !222
  %54 = load ptr, ptr %9, align 8, !tbaa !108
  %55 = zext i32 %53 to i64
  %56 = getelementptr inbounds nuw %"struct.euf::ac_plugin::monomial_t", ptr %54, i64 %55
  tail call void @_ZN3euf9ac_plugin20init_subset_iteratorEjRKNS0_10monomial_tE(ptr noundef nonnull align 8 dereferenceable(432) %0, i32 noundef %1, ptr noundef nonnull align 8 dereferenceable(24) %56)
  %57 = getelementptr inbounds nuw i8, ptr %0, i64 416
  ret ptr %57
}